target datalayout = "e-m:e-p270:32:32-p271:32:32-p272:64:64-i64:64-i128:128-f80:128-n8:16:32:64-S128"
target triple = "x86_64-unknown-linux-gnu"

%"struct.pbrt::TextureEvalContext" = type { %"class.pbrt::Point3", %"class.pbrt::Vector3", %"class.pbrt::Vector3", %"class.pbrt::Normal3", %"class.pbrt::Point2", float, float, float, float, i32 }
%"class.pbrt::Point3" = type { %"class.pbrt::Tuple3" }
%"class.pbrt::Tuple3" = type { float, float, float }
%"class.pbrt::Vector3" = type { %"class.pbrt::Tuple3.0" }
%"class.pbrt::Tuple3.0" = type { float, float, float }
%"class.pbrt::Normal3" = type { %"class.pbrt::Tuple3.1" }
%"class.pbrt::Tuple3.1" = type { float, float, float }
%"class.pbrt::Point2" = type { %"class.pbrt::Tuple2" }
%"class.pbrt::Tuple2" = type { float, float }
%"class.pbrt::TaggedPointer.6" = type { i64 }
%class.anon.75 = type { ptr }

; Function Attrs: mustprogress nounwind uwtable
define linkonce_odr dso_local noundef i32 @_ZNK4pbrt13TaggedPointerIJNS_17FloatImageTextureENS_20GPUFloatImageTextureENS_15FloatMixTextureENS_24FloatDirectionMixTextureENS_18FloatScaledTextureENS_20FloatConstantTextureENS_18FloatBilerpTextureENS_24FloatCheckerboardTextureENS_16FloatDotsTextureENS_10FBmTextureENS_16FloatPtexTextureENS_19GPUFloatPtexTextureENS_12WindyTextureENS_15WrinkledTextureEEE3TagEv(ptr noundef nonnull align 8 dereferenceable(8) %this) #5 comdat align 2 {
entry:
  %this.addr = alloca ptr, align 8
  store ptr %this, ptr %this.addr, align 8
  %this1 = load ptr, ptr %this.addr, align 8
  %bits = getelementptr inbounds %"class.pbrt::TaggedPointer.6", ptr %this1, i32 0, i32 0
  %0 = load i64, ptr %bits, align 8
  %and = and i64 %0, -144115188075855872
  %shr = lshr i64 %and, 57
  %conv = trunc i64 %shr to i32
  ret i32 %conv
}

; Function Attrs: mustprogress nounwind uwtable
define linkonce_odr dso_local noundef ptr @_ZNK4pbrt13TaggedPointerIJNS_17FloatImageTextureENS_20GPUFloatImageTextureENS_15FloatMixTextureENS_24FloatDirectionMixTextureENS_18FloatScaledTextureENS_20FloatConstantTextureENS_18FloatBilerpTextureENS_24FloatCheckerboardTextureENS_16FloatDotsTextureENS_10FBmTextureENS_16FloatPtexTextureENS_19GPUFloatPtexTextureENS_12WindyTextureENS_15WrinkledTextureEEE3ptrEv(ptr noundef nonnull align 8 dereferenceable(8) %this) #5 comdat align 2 {
entry:
  %this.addr = alloca ptr, align 8
  store ptr %this, ptr %this.addr, align 8
  %this1 = load ptr, ptr %this.addr, align 8
  %bits = getelementptr inbounds %"class.pbrt::TaggedPointer.6", ptr %this1, i32 0, i32 0
  %0 = load i64, ptr %bits, align 8
  %and = and i64 %0, 144115188075855871
  %1 = inttoptr i64 %and to ptr
  ret ptr %1
}

; Function Attrs: mustprogress uwtable
define linkonce_odr dso_local noundef float @_ZNK4pbrt13TaggedPointerIJNS_17FloatImageTextureENS_20GPUFloatImageTextureENS_15FloatMixTextureENS_24FloatDirectionMixTextureENS_18FloatScaledTextureENS_20FloatConstantTextureENS_18FloatBilerpTextureENS_24FloatCheckerboardTextureENS_16FloatDotsTextureENS_10FBmTextureENS_16FloatPtexTextureENS_19GPUFloatPtexTextureENS_12WindyTextureENS_15WrinkledTextureEEE8DispatchIRZNKS_12FloatTexture8EvaluateENS_18TextureEvalContextEEUlT_E_EEDcOSJ_(ptr noundef nonnull align 8 dereferenceable(8) %this, ptr noundef nonnull align 8 dereferenceable(8) %func) #1 comdat align 2 {
entry:
  %this.addr = alloca ptr, align 8
  %func.addr = alloca ptr, align 8
  store ptr %this, ptr %this.addr, align 8
  store ptr %func, ptr %func.addr, align 8
  %this1 = load ptr, ptr %this.addr, align 8
  br label %do.body

do.body:                                          ; preds = %entry
  br label %do.end

do.end:                                           ; preds = %do.body
  %0 = load ptr, ptr %func.addr, align 8
  %call = call noundef ptr @_ZNK4pbrt13TaggedPointerIJNS_17FloatImageTextureENS_20GPUFloatImageTextureENS_15FloatMixTextureENS_24FloatDirectionMixTextureENS_18FloatScaledTextureENS_20FloatConstantTextureENS_18FloatBilerpTextureENS_24FloatCheckerboardTextureENS_16FloatDotsTextureENS_10FBmTextureENS_16FloatPtexTextureENS_19GPUFloatPtexTextureENS_12WindyTextureENS_15WrinkledTextureEEE3ptrEv(ptr noundef nonnull align 8 dereferenceable(8) %this1)
  %call2 = call noundef i32 @_ZNK4pbrt13TaggedPointerIJNS_17FloatImageTextureENS_20GPUFloatImageTextureENS_15FloatMixTextureENS_24FloatDirectionMixTextureENS_18FloatScaledTextureENS_20FloatConstantTextureENS_18FloatBilerpTextureENS_24FloatCheckerboardTextureENS_16FloatDotsTextureENS_10FBmTextureENS_16FloatPtexTextureENS_19GPUFloatPtexTextureENS_12WindyTextureENS_15WrinkledTextureEEE3TagEv(ptr noundef nonnull align 8 dereferenceable(8) %this1)
  %sub = sub i32 %call2, 1
  %call3 = call noundef float @_ZN4pbrt6detail8DispatchIRZNKS_12FloatTexture8EvaluateENS_18TextureEvalContextEEUlT_E_fNS_17FloatImageTextureENS_20GPUFloatImageTextureENS_15FloatMixTextureENS_24FloatDirectionMixTextureENS_18FloatScaledTextureENS_20FloatConstantTextureENS_18FloatBilerpTextureENS_24FloatCheckerboardTextureEJNS_16FloatDotsTextureENS_10FBmTextureENS_16FloatPtexTextureENS_19GPUFloatPtexTextureENS_12WindyTextureENS_15WrinkledTextureEEvEET0_OS4_PKvi(ptr noundef nonnull align 8 dereferenceable(8) %0, ptr noundef %call, i32 noundef %sub)
  ret float %call3
}

; Function Attrs: mustprogress uwtable
define linkonce_odr dso_local noundef float @_ZNK4pbrt12FloatTexture8EvaluateENS_18TextureEvalContextE(ptr noundef nonnull align 8 dereferenceable(8) %this, ptr noundef byval(%"struct.pbrt::TextureEvalContext") align 8 %ctx) #1 comdat align 2 {
entry:
  %this.addr = alloca ptr, align 8
  %eval = alloca %class.anon.75, align 8
  store ptr %this, ptr %this.addr, align 8
  %this1 = load ptr, ptr %this.addr, align 8
  %0 = getelementptr inbounds %class.anon.75, ptr %eval, i32 0, i32 0
  store ptr %ctx, ptr %0, align 8
  %call = call noundef float @_ZNK4pbrt13TaggedPointerIJNS_17FloatImageTextureENS_20GPUFloatImageTextureENS_15FloatMixTextureENS_24FloatDirectionMixTextureENS_18FloatScaledTextureENS_20FloatConstantTextureENS_18FloatBilerpTextureENS_24FloatCheckerboardTextureENS_16FloatDotsTextureENS_10FBmTextureENS_16FloatPtexTextureENS_19GPUFloatPtexTextureENS_12WindyTextureENS_15WrinkledTextureEEE8DispatchIRZNKS_12FloatTexture8EvaluateENS_18TextureEvalContextEEUlT_E_EEDcOSJ_(ptr noundef nonnull align 8 dereferenceable(8) %this1, ptr noundef nonnull align 8 dereferenceable(8) %eval)
  ret float %call
}

; Function Attrs: mustprogress uwtable
define dso_local noundef float @_ZN4pbrt25UniversalTextureEvaluatorclENS_12FloatTextureENS_18TextureEvalContextE(ptr noundef nonnull align 1 dereferenceable(1) %this, ptr noundef %tex, ptr noundef byval(%"struct.pbrt::TextureEvalContext") align 8 %ctx) #1 align 2 {
entry:
  %this.addr = alloca ptr, align 8
  %tex.indirect_addr = alloca ptr, align 8
  %agg.tmp = alloca %"struct.pbrt::TextureEvalContext", align 8
  store ptr %this, ptr %this.addr, align 8
  store ptr %tex, ptr %tex.indirect_addr, align 8
  call void @llvm.memcpy.p0.p0.i64(ptr align 4 %agg.tmp, ptr align 8 %ctx, i64 76, i1 false)
  %call = call noundef float @_ZNK4pbrt12FloatTexture8EvaluateENS_18TextureEvalContextE(ptr noundef nonnull align 8 dereferenceable(8) %tex, ptr noundef byval(%"struct.pbrt::TextureEvalContext") align 8 %agg.tmp)
  ret float %call
}