; Function Attrs: mustprogress uwtable
define dso_local noundef float @_ZN4pbrt25UniversalTextureEvaluatorclENS_12FloatTextureENS_18TextureEvalContextE(ptr nocapture noundef nonnull readnone align 1 dereferenceable(1) %this, ptr nocapture noundef readonly %tex, ptr nocapture noundef readonly byval(%"struct.pbrt::TextureEvalContext") align 8 %ctx) local_unnamed_addr #0 align 2 {
entry:
  %eval.i = alloca %class.anon.75, align 8
  %agg.tmp1 = alloca %"struct.pbrt::TextureEvalContext", align 8
  call void @llvm.lifetime.start.p0(i64 76, ptr nonnull %agg.tmp1)
  call void @llvm.memcpy.p0.p0.i64(ptr noundef nonnull align 8 dereferenceable(76) %agg.tmp1, ptr noundef nonnull align 8 dereferenceable(76) %ctx, i64 76, i1 false)
  call void @llvm.lifetime.start.p0(i64 8, ptr nonnull %eval.i)
  store ptr %agg.tmp1, ptr %eval.i, align 8
  %0 = load i64, ptr %tex, align 8
  %and.i.i = and i64 %0, 144115188075855871
  %1 = inttoptr i64 %and.i.i to ptr
  %shr.i.i = lshr i64 %0, 57
  %conv.i.i = trunc i64 %shr.i.i to i32
  %sub.i.i = add nsw i32 %conv.i.i, -1
  %call3.i.i = call noundef float @_ZN4pbrt6detail8DispatchIRZNKS_12FloatTexture8EvaluateENS_18TextureEvalContextEEUlT_E_fNS_17FloatImageTextureENS_20GPUFloatImageTextureENS_15FloatMixTextureENS_24FloatDirectionMixTextureENS_18FloatScaledTextureENS_20FloatConstantTextureENS_18FloatBilerpTextureENS_24FloatCheckerboardTextureEJNS_16FloatDotsTextureENS_10FBmTextureENS_16FloatPtexTextureENS_19GPUFloatPtexTextureENS_12WindyTextureENS_15WrinkledTextureEEvEET0_OS4_PKvi(ptr noundef nonnull align 8 dereferenceable(8) %eval.i, ptr noundef %1, i32 noundef %sub.i.i)
  call void @llvm.lifetime.end.p0(i64 76, ptr nonnull %agg.tmp1)
  call void @llvm.lifetime.end.p0(i64 8, ptr nonnull %eval.i)
  ret float %call3.i.i
}